target datalayout = "e-m:e-p270:32:32-p271:32:32-p272:64:64-i64:64-i128:128-f80:128-n8:16:32:64-S128"
target triple = "x86_64-pc-linux-gnu"

%struct.expert_field = type { i32, i32 }

@hf_banana_list = internal global i32 0, align 4
@hf_banana_int = internal global i32 0, align 4
@hf_banana_string = internal global i32 0, align 4
@hf_banana_neg_int = internal global i32 0, align 4
@hf_banana_float = internal global i32 0, align 4
@hf_banana_lg_int = internal global i32 0, align 4
@hf_banana_lg_neg_int = internal global i32 0, align 4
@hf_banana_pb = internal global i32 0, align 4
@ett_list = internal global i32 0, align 4
@ei_banana_unknown_type = internal global %struct.expert_field zeroinitializer, align 4
@ei_banana_too_many_value_bytes = internal global %struct.expert_field zeroinitializer, align 4
@ei_banana_length_too_long = internal global %struct.expert_field zeroinitializer, align 4
@ei_banana_value_too_large = internal global %struct.expert_field zeroinitializer, align 4
@ei_banana_pb_error = internal global %struct.expert_field zeroinitializer, align 4
@.str.76 = private unnamed_addr constant [16 x i8] c"Unknown type %u\00", align 1
@.str.77 = private unnamed_addr constant [42 x i8] c"List length %ld longer than we can handle\00", align 1
@.str.78 = private unnamed_addr constant [11 x i8] c"(%d items)\00", align 1
@.str.79 = private unnamed_addr constant [28 x i8] c"Integer value %ld too large\00", align 1
@.str.80 = private unnamed_addr constant [44 x i8] c"String length %ld longer than we can handle\00", align 1
@.str.81 = private unnamed_addr constant [29 x i8] c"Integer value -%ld too large\00", align 1

; Function Attrs: null_pointer_is_valid sspstrong uwtable
define internal i32 @dissect_banana_element(ptr noundef %0, ptr noundef %1, ptr noundef %2, i32 noundef %3) #0 {
  %5 = alloca i32, align 4
  %6 = alloca ptr, align 8
  %7 = alloca ptr, align 8
  %8 = alloca ptr, align 8
  %9 = alloca i32, align 4
  %10 = alloca ptr, align 8
  %11 = alloca ptr, align 8
  %12 = alloca i8, align 1
  %13 = alloca i64, align 8
  %14 = alloca i32, align 4
  %15 = alloca i32, align 4
  %16 = alloca i32, align 4
  %17 = alloca i32, align 4
  %18 = alloca i32, align 4
  store ptr %0, ptr %6, align 8
  store ptr %1, ptr %7, align 8
  store ptr %2, ptr %8, align 8
  store i32 %3, ptr %9, align 4
  call void @llvm.lifetime.start.p0(i64 8, ptr %10) #3
  call void @llvm.lifetime.start.p0(i64 8, ptr %11) #3
  call void @llvm.lifetime.start.p0(i64 1, ptr %12) #3
  store i8 0, ptr %12, align 1
  call void @llvm.lifetime.start.p0(i64 8, ptr %13) #3
  store i64 0, ptr %13, align 8
  call void @llvm.lifetime.start.p0(i64 4, ptr %14) #3
  store i32 0, ptr %14, align 4
  call void @llvm.lifetime.start.p0(i64 4, ptr %15) #3
  %19 = load i32, ptr %9, align 4
  store i32 %19, ptr %15, align 4
  call void @llvm.lifetime.start.p0(i64 4, ptr %16) #3
  call void @llvm.lifetime.start.p0(i64 4, ptr %17) #3
  br label %20

20:                                               ; preds = %66, %4
  %21 = load ptr, ptr %6, align 8
  %22 = load i32, ptr %9, align 4
  %23 = call i32 @tvb_reported_length_remaining(ptr noundef %21, i32 noundef %22)
  %24 = icmp sgt i32 %23, 0
  br i1 %24, label %25, label %67

25:                                               ; preds = %20
  %26 = load ptr, ptr %6, align 8
  %27 = load i32, ptr %9, align 4
  %28 = call zeroext i8 @tvb_get_uint8(ptr noundef %26, i32 noundef %27)
  store i8 %28, ptr %12, align 1
  %29 = load i32, ptr %9, align 4
  %30 = add i32 %29, 1
  store i32 %30, ptr %9, align 4
  %31 = load i8, ptr %12, align 1
  %32 = zext i8 %31 to i32
  %33 = and i32 %32, 128
  %34 = icmp ne i32 %33, 0
  br i1 %34, label %35, label %50

35:                                               ; preds = %25
  %36 = load i8, ptr %12, align 1
  %37 = zext i8 %36 to i32
  %38 = icmp sge i32 %37, 128
  br i1 %38, label %39, label %44

39:                                               ; preds = %35
  %40 = load i8, ptr %12, align 1
  %41 = zext i8 %40 to i32
  %42 = icmp sle i32 %41, 135
  br i1 %42, label %43, label %44

43:                                               ; preds = %39
  br label %67

44:                                               ; preds = %39, %35
  %45 = load ptr, ptr %7, align 8
  %46 = load i8, ptr %12, align 1
  %47 = zext i8 %46 to i32
  %48 = call ptr (ptr, ptr, ptr, ptr, ...) @expert_add_info_format(ptr noundef %45, ptr noundef null, ptr noundef @ei_banana_unknown_type, ptr noundef @.str.76, i32 noundef %47)
  br label %49

49:                                               ; preds = %44
  br label %66

50:                                               ; preds = %25
  %51 = load i32, ptr %14, align 4
  %52 = add i32 %51, 1
  store i32 %52, ptr %14, align 4
  %53 = load i32, ptr %14, align 4
  %54 = icmp sgt i32 %53, 8
  br i1 %54, label %55, label %58

55:                                               ; preds = %50
  %56 = load ptr, ptr %7, align 8
  %57 = call ptr @expert_add_info(ptr noundef %56, ptr noundef null, ptr noundef @ei_banana_too_many_value_bytes)
  br label %58

58:                                               ; preds = %55, %50
  %59 = load i8, ptr %12, align 1
  %60 = zext i8 %59 to i64
  %61 = load i64, ptr %13, align 8
  %62 = shl i64 %61, 7
  %63 = add i64 %60, %62
  %64 = load i64, ptr %13, align 8
  %65 = add i64 %64, %63
  store i64 %65, ptr %13, align 8
  br label %66

66:                                               ; preds = %58, %49
  br label %20, !llvm.loop !9

67:                                               ; preds = %43, %20
  %68 = load i8, ptr %12, align 1
  %69 = zext i8 %68 to i32
  switch i32 %69, label %217 [
    i32 128, label %70
    i32 129, label %122
    i32 130, label %140
    i32 131, label %159
    i32 132, label %178
    i32 133, label %186
    i32 134, label %195
    i32 135, label %204
  ]

70:                                               ; preds = %67
  %71 = load i64, ptr %13, align 8
  %72 = icmp sgt i64 %71, 2147483647
  br i1 %72, label %73, label %77

73:                                               ; preds = %70
  %74 = load ptr, ptr %7, align 8
  %75 = load i64, ptr %13, align 8
  %76 = call ptr (ptr, ptr, ptr, ptr, ...) @expert_add_info_format(ptr noundef %74, ptr noundef null, ptr noundef @ei_banana_length_too_long, ptr noundef @.str.77, i64 noundef %75)
  br label %77

77:                                               ; preds = %73, %70
  %78 = load ptr, ptr %8, align 8
  %79 = load i32, ptr @hf_banana_list, align 4
  %80 = load ptr, ptr %6, align 8
  %81 = load i32, ptr %15, align 4
  %82 = load i32, ptr %9, align 4
  %83 = load i32, ptr %15, align 4
  %84 = sub i32 %82, %83
  %85 = sub i32 %84, 1
  %86 = load i64, ptr %13, align 8
  %87 = trunc i64 %86 to i32
  %88 = load i64, ptr %13, align 8
  %89 = trunc i64 %88 to i32
  %90 = call ptr (ptr, i32, ptr, i32, i32, i32, ptr, ...) @proto_tree_add_uint_format_value(ptr noundef %78, i32 noundef %79, ptr noundef %80, i32 noundef %81, i32 noundef %85, i32 noundef %87, ptr noundef @.str.78, i32 noundef %89)
  store ptr %90, ptr %10, align 8
  %91 = load ptr, ptr %10, align 8
  %92 = load i32, ptr @ett_list, align 4
  %93 = call ptr @proto_item_add_subtree(ptr noundef %91, i32 noundef %92)
  store ptr %93, ptr %11, align 8
  store i32 0, ptr %17, align 4
  br label %94

94:                                               ; preds = %118, %77
  %95 = load i32, ptr %17, align 4
  %96 = sext i32 %95 to i64
  %97 = load i64, ptr %13, align 8
  %98 = icmp slt i64 %96, %97
  br i1 %98, label %99, label %121

99:                                               ; preds = %94
  %100 = load i32, ptr %9, align 4
  store i32 %100, ptr %16, align 4
  %101 = load ptr, ptr %7, align 8
  call void @increment_dissection_depth(ptr noundef %101)
  %102 = load ptr, ptr %6, align 8
  %103 = load ptr, ptr %7, align 8
  %104 = load ptr, ptr %11, align 8
  %105 = load i32, ptr %9, align 4
  %106 = call i32 @dissect_banana_element(ptr noundef %102, ptr noundef %103, ptr noundef %104, i32 noundef %105)
  %107 = load i32, ptr %9, align 4
  %108 = add i32 %107, %106
  store i32 %108, ptr %9, align 4
  %109 = load ptr, ptr %7, align 8
  call void @decrement_dissection_depth(ptr noundef %109)
  %110 = load i32, ptr %9, align 4
  %111 = load i32, ptr %16, align 4
  %112 = icmp sle i32 %110, %111
  br i1 %112, label %113, label %117

113:                                              ; preds = %99
  %114 = load i32, ptr %9, align 4
  %115 = load i32, ptr %15, align 4
  %116 = sub i32 %114, %115
  store i32 %116, ptr %5, align 4
  store i32 1, ptr %18, align 4
  br label %222

117:                                              ; preds = %99
  br label %118

118:                                              ; preds = %117
  %119 = load i32, ptr %17, align 4
  %120 = add i32 %119, 1
  store i32 %120, ptr %17, align 4
  br label %94, !llvm.loop !10

121:                                              ; preds = %94
  br label %218

122:                                              ; preds = %67
  %123 = load i64, ptr %13, align 8
  %124 = icmp sgt i64 %123, 2147483647
  br i1 %124, label %125, label %129

125:                                              ; preds = %122
  %126 = load ptr, ptr %7, align 8
  %127 = load i64, ptr %13, align 8
  %128 = call ptr (ptr, ptr, ptr, ptr, ...) @expert_add_info_format(ptr noundef %126, ptr noundef null, ptr noundef @ei_banana_value_too_large, ptr noundef @.str.79, i64 noundef %127)
  br label %129

129:                                              ; preds = %125, %122
  %130 = load ptr, ptr %8, align 8
  %131 = load i32, ptr @hf_banana_int, align 4
  %132 = load ptr, ptr %6, align 8
  %133 = load i32, ptr %15, align 4
  %134 = load i32, ptr %9, align 4
  %135 = load i32, ptr %15, align 4
  %136 = sub i32 %134, %135
  %137 = load i64, ptr %13, align 8
  %138 = trunc i64 %137 to i32
  %139 = call ptr @proto_tree_add_uint(ptr noundef %130, i32 noundef %131, ptr noundef %132, i32 noundef %133, i32 noundef %136, i32 noundef %138)
  br label %218

140:                                              ; preds = %67
  %141 = load i64, ptr %13, align 8
  %142 = icmp sgt i64 %141, 2147483647
  br i1 %142, label %143, label %147

143:                                              ; preds = %140
  %144 = load ptr, ptr %7, align 8
  %145 = load i64, ptr %13, align 8
  %146 = call ptr (ptr, ptr, ptr, ptr, ...) @expert_add_info_format(ptr noundef %144, ptr noundef null, ptr noundef @ei_banana_length_too_long, ptr noundef @.str.80, i64 noundef %145)
  br label %147

147:                                              ; preds = %143, %140
  %148 = load ptr, ptr %8, align 8
  %149 = load i32, ptr @hf_banana_string, align 4
  %150 = load ptr, ptr %6, align 8
  %151 = load i32, ptr %9, align 4
  %152 = load i64, ptr %13, align 8
  %153 = trunc i64 %152 to i32
  %154 = call ptr @proto_tree_add_item(ptr noundef %148, i32 noundef %149, ptr noundef %150, i32 noundef %151, i32 noundef %153, i32 noundef 0)
  %155 = load i64, ptr %13, align 8
  %156 = trunc i64 %155 to i32
  %157 = load i32, ptr %9, align 4
  %158 = add i32 %157, %156
  store i32 %158, ptr %9, align 4
  br label %218

159:                                              ; preds = %67
  %160 = load i64, ptr %13, align 8
  %161 = icmp sgt i64 %160, 2147483647
  br i1 %161, label %162, label %166

162:                                              ; preds = %159
  %163 = load ptr, ptr %7, align 8
  %164 = load i64, ptr %13, align 8
  %165 = call ptr (ptr, ptr, ptr, ptr, ...) @expert_add_info_format(ptr noundef %163, ptr noundef null, ptr noundef @ei_banana_value_too_large, ptr noundef @.str.81, i64 noundef %164)
  br label %166

166:                                              ; preds = %162, %159
  %167 = load ptr, ptr %8, align 8
  %168 = load i32, ptr @hf_banana_neg_int, align 4
  %169 = load ptr, ptr %6, align 8
  %170 = load i32, ptr %15, align 4
  %171 = load i32, ptr %9, align 4
  %172 = load i32, ptr %15, align 4
  %173 = sub i32 %171, %172
  %174 = load i64, ptr %13, align 8
  %175 = trunc i64 %174 to i32
  %176 = mul i32 %175, -1
  %177 = call ptr @proto_tree_add_int(ptr noundef %167, i32 noundef %168, ptr noundef %169, i32 noundef %170, i32 noundef %173, i32 noundef %176)
  br label %218

178:                                              ; preds = %67
  %179 = load ptr, ptr %8, align 8
  %180 = load i32, ptr @hf_banana_float, align 4
  %181 = load ptr, ptr %6, align 8
  %182 = load i32, ptr %9, align 4
  %183 = call ptr @proto_tree_add_item(ptr noundef %179, i32 noundef %180, ptr noundef %181, i32 noundef %182, i32 noundef 8, i32 noundef 0)
  %184 = load i32, ptr %9, align 4
  %185 = add i32 %184, 8
  store i32 %185, ptr %9, align 4
  br label %218

186:                                              ; preds = %67
  %187 = load ptr, ptr %8, align 8
  %188 = load i32, ptr @hf_banana_lg_int, align 4
  %189 = load ptr, ptr %6, align 8
  %190 = load i32, ptr %15, align 4
  %191 = load i32, ptr %9, align 4
  %192 = load i32, ptr %15, align 4
  %193 = sub i32 %191, %192
  %194 = call ptr @proto_tree_add_item(ptr noundef %187, i32 noundef %188, ptr noundef %189, i32 noundef %190, i32 noundef %193, i32 noundef 0)
  br label %218

195:                                              ; preds = %67
  %196 = load ptr, ptr %8, align 8
  %197 = load i32, ptr @hf_banana_lg_neg_int, align 4
  %198 = load ptr, ptr %6, align 8
  %199 = load i32, ptr %15, align 4
  %200 = load i32, ptr %9, align 4
  %201 = load i32, ptr %15, align 4
  %202 = sub i32 %200, %201
  %203 = call ptr @proto_tree_add_item(ptr noundef %196, i32 noundef %197, ptr noundef %198, i32 noundef %199, i32 noundef %202, i32 noundef 0)
  br label %218

204:                                              ; preds = %67
  %205 = load i32, ptr %14, align 4
  %206 = icmp sgt i32 %205, 1
  br i1 %206, label %207, label %210

207:                                              ; preds = %204
  %208 = load ptr, ptr %7, align 8
  %209 = call ptr @expert_add_info(ptr noundef %208, ptr noundef null, ptr noundef @ei_banana_pb_error)
  br label %210

210:                                              ; preds = %207, %204
  %211 = load ptr, ptr %8, align 8
  %212 = load i32, ptr @hf_banana_pb, align 4
  %213 = load ptr, ptr %6, align 8
  %214 = load i32, ptr %9, align 4
  %215 = sub i32 %214, 2
  %216 = call ptr @proto_tree_add_item(ptr noundef %211, i32 noundef %212, ptr noundef %213, i32 noundef %215, i32 noundef 1, i32 noundef 0)
  br label %218

217:                                              ; preds = %67
  store i32 0, ptr %5, align 4
  store i32 1, ptr %18, align 4
  br label %222

218:                                              ; preds = %210, %195, %186, %178, %166, %147, %129, %121
  %219 = load i32, ptr %9, align 4
  %220 = load i32, ptr %15, align 4
  %221 = sub i32 %219, %220
  store i32 %221, ptr %5, align 4
  store i32 1, ptr %18, align 4
  br label %222

222:                                              ; preds = %218, %217, %113
  call void @llvm.lifetime.end.p0(i64 4, ptr %17) #3
  call void @llvm.lifetime.end.p0(i64 4, ptr %16) #3
  call void @llvm.lifetime.end.p0(i64 4, ptr %15) #3
  call void @llvm.lifetime.end.p0(i64 4, ptr %14) #3
  call void @llvm.lifetime.end.p0(i64 8, ptr %13) #3
  call void @llvm.lifetime.end.p0(i64 1, ptr %12) #3
  call void @llvm.lifetime.end.p0(i64 8, ptr %11) #3
  call void @llvm.lifetime.end.p0(i64 8, ptr %10) #3
  %223 = load i32, ptr %5, align 4
  ret i32 %223
}