; Function Attrs: null_pointer_is_valid sspstrong uwtable
define internal fastcc i32 @dissect_banana_element(ptr noundef %0, ptr noundef %1, ptr noundef %2, i32 noundef %3) unnamed_addr #0 {
  %5 = tail call i32 @tvb_reported_length_remaining(ptr noundef %0, i32 noundef %3)
  %6 = icmp sgt i32 %5, 0
  br i1 %6, label %.lr.ph, label %._crit_edge.thread

.lr.ph:                                           ; preds = %4, %23
  %.095108 = phi i32 [ %8, %23 ], [ %3, %4 ]
  %.096107 = phi i32 [ %.197, %23 ], [ 0, %4 ]
  %.098106 = phi i64 [ %.199, %23 ], [ 0, %4 ]
  %7 = tail call zeroext i8 @tvb_get_uint8(ptr noundef %0, i32 noundef %.095108)
  %8 = add i32 %.095108, 1
  %9 = zext i8 %7 to i32
  %.not = icmp sgt i8 %7, -1
  br i1 %.not, label %14, label %10

10:                                               ; preds = %.lr.ph
  %11 = icmp samesign ult i8 %7, -120
  br i1 %11, label %._crit_edge, label %12

12:                                               ; preds = %10
  %13 = tail call ptr (ptr, ptr, ptr, ptr, ...) @expert_add_info_format(ptr noundef %1, ptr noundef null, ptr noundef nonnull @ei_banana_unknown_type, ptr noundef nonnull @.str.76, i32 noundef %9)
  br label %23

14:                                               ; preds = %.lr.ph
  %15 = add i32 %.096107, 1
  %16 = icmp sgt i32 %15, 8
  br i1 %16, label %17, label %19

17:                                               ; preds = %14
  %18 = tail call ptr @expert_add_info(ptr noundef %1, ptr noundef null, ptr noundef nonnull @ei_banana_too_many_value_bytes)
  br label %19

19:                                               ; preds = %17, %14
  %20 = zext nneg i8 %7 to i64
  %21 = mul i64 %.098106, 129
  %22 = add i64 %21, %20
  br label %23

23:                                               ; preds = %19, %12
  %.199 = phi i64 [ %.098106, %12 ], [ %22, %19 ]
  %.197 = phi i32 [ %.096107, %12 ], [ %15, %19 ]
  %24 = tail call i32 @tvb_reported_length_remaining(ptr noundef %0, i32 noundef %8)
  %25 = icmp sgt i32 %24, 0
  br i1 %25, label %.lr.ph, label %._crit_edge, !llvm.loop !9

._crit_edge:                                      ; preds = %23, %10
  %.098.lcssa.ph = phi i64 [ %.199, %23 ], [ %.098106, %10 ]
  %.096.lcssa.ph = phi i32 [ %.197, %23 ], [ %.096107, %10 ]
  switch i8 %7, label %._crit_edge.thread [
    i8 -128, label %26
    i8 -127, label %46
    i8 -126, label %55
    i8 -125, label %64
    i8 -124, label %74
    i8 -123, label %78
    i8 -122, label %82
    i8 -121, label %86
  ]

26:                                               ; preds = %._crit_edge
  %27 = icmp sgt i64 %.098.lcssa.ph, 2147483647
  br i1 %27, label %28, label %30

28:                                               ; preds = %26
  %29 = tail call ptr (ptr, ptr, ptr, ptr, ...) @expert_add_info_format(ptr noundef %1, ptr noundef null, ptr noundef nonnull @ei_banana_length_too_long, ptr noundef nonnull @.str.77, i64 noundef %.098.lcssa.ph)
  br label %30

30:                                               ; preds = %28, %26
  %31 = load i32, ptr @hf_banana_list, align 4
  %32 = sub i32 %.095108, %3
  %33 = trunc i64 %.098.lcssa.ph to i32
  %34 = tail call ptr (ptr, i32, ptr, i32, i32, i32, ptr, ...) @proto_tree_add_uint_format_value(ptr noundef %2, i32 noundef %31, ptr noundef %0, i32 noundef %3, i32 noundef %32, i32 noundef %33, ptr noundef nonnull @.str.78, i32 noundef %33)
  %35 = load i32, ptr @ett_list, align 4
  %36 = tail call ptr @proto_item_add_subtree(ptr noundef %34, i32 noundef %35)
  %37 = icmp sgt i64 %.098.lcssa.ph, 0
  br i1 %37, label %.lr.ph120, label %.loopexit

38:                                               ; preds = %.lr.ph120
  %39 = add i32 %.0118, 1
  %40 = sext i32 %39 to i64
  %41 = icmp sgt i64 %.098.lcssa.ph, %40
  br i1 %41, label %.lr.ph120, label %.loopexit, !llvm.loop !10

.lr.ph120:                                        ; preds = %30, %38
  %.0118 = phi i32 [ %39, %38 ], [ 0, %30 ]
  %.2117 = phi i32 [ %43, %38 ], [ %8, %30 ]
  tail call void @increment_dissection_depth(ptr noundef %1)
  %42 = tail call fastcc i32 @dissect_banana_element(ptr noundef %0, ptr noundef %1, ptr noundef %36, i32 noundef %.2117)
  %43 = add i32 %42, %.2117
  tail call void @decrement_dissection_depth(ptr noundef %1)
  %.not104 = icmp sgt i32 %43, %.2117
  br i1 %.not104, label %38, label %44

44:                                               ; preds = %.lr.ph120
  %45 = sub i32 %43, %3
  br label %._crit_edge.thread

46:                                               ; preds = %._crit_edge
  %47 = icmp sgt i64 %.098.lcssa.ph, 2147483647
  br i1 %47, label %48, label %50

48:                                               ; preds = %46
  %49 = tail call ptr (ptr, ptr, ptr, ptr, ...) @expert_add_info_format(ptr noundef %1, ptr noundef null, ptr noundef nonnull @ei_banana_value_too_large, ptr noundef nonnull @.str.79, i64 noundef %.098.lcssa.ph)
  br label %50

50:                                               ; preds = %48, %46
  %51 = load i32, ptr @hf_banana_int, align 4
  %52 = sub i32 %8, %3
  %53 = trunc i64 %.098.lcssa.ph to i32
  %54 = tail call ptr @proto_tree_add_uint(ptr noundef %2, i32 noundef %51, ptr noundef %0, i32 noundef %3, i32 noundef %52, i32 noundef %53)
  br label %.loopexit

55:                                               ; preds = %._crit_edge
  %56 = icmp sgt i64 %.098.lcssa.ph, 2147483647
  br i1 %56, label %57, label %59

57:                                               ; preds = %55
  %58 = tail call ptr (ptr, ptr, ptr, ptr, ...) @expert_add_info_format(ptr noundef %1, ptr noundef null, ptr noundef nonnull @ei_banana_length_too_long, ptr noundef nonnull @.str.80, i64 noundef %.098.lcssa.ph)
  br label %59

59:                                               ; preds = %57, %55
  %60 = load i32, ptr @hf_banana_string, align 4
  %61 = trunc i64 %.098.lcssa.ph to i32
  %62 = tail call ptr @proto_tree_add_item(ptr noundef %2, i32 noundef %60, ptr noundef %0, i32 noundef %8, i32 noundef %61, i32 noundef 0)
  %63 = add i32 %8, %61
  br label %.loopexit

64:                                               ; preds = %._crit_edge
  %65 = icmp sgt i64 %.098.lcssa.ph, 2147483647
  br i1 %65, label %66, label %68

66:                                               ; preds = %64
  %67 = tail call ptr (ptr, ptr, ptr, ptr, ...) @expert_add_info_format(ptr noundef %1, ptr noundef null, ptr noundef nonnull @ei_banana_value_too_large, ptr noundef nonnull @.str.81, i64 noundef %.098.lcssa.ph)
  br label %68

68:                                               ; preds = %66, %64
  %69 = load i32, ptr @hf_banana_neg_int, align 4
  %70 = sub i32 %8, %3
  %71 = trunc i64 %.098.lcssa.ph to i32
  %72 = sub i32 0, %71
  %73 = tail call ptr @proto_tree_add_int(ptr noundef %2, i32 noundef %69, ptr noundef %0, i32 noundef %3, i32 noundef %70, i32 noundef %72)
  br label %.loopexit

74:                                               ; preds = %._crit_edge
  %75 = load i32, ptr @hf_banana_float, align 4
  %76 = tail call ptr @proto_tree_add_item(ptr noundef %2, i32 noundef %75, ptr noundef %0, i32 noundef %8, i32 noundef 8, i32 noundef 0)
  %77 = add i32 %.095108, 9
  br label %.loopexit

78:                                               ; preds = %._crit_edge
  %79 = load i32, ptr @hf_banana_lg_int, align 4
  %80 = sub i32 %8, %3
  %81 = tail call ptr @proto_tree_add_item(ptr noundef %2, i32 noundef %79, ptr noundef %0, i32 noundef %3, i32 noundef %80, i32 noundef 0)
  br label %.loopexit

82:                                               ; preds = %._crit_edge
  %83 = load i32, ptr @hf_banana_lg_neg_int, align 4
  %84 = sub i32 %8, %3
  %85 = tail call ptr @proto_tree_add_item(ptr noundef %2, i32 noundef %83, ptr noundef %0, i32 noundef %3, i32 noundef %84, i32 noundef 0)
  br label %.loopexit

86:                                               ; preds = %._crit_edge
  %87 = icmp sgt i32 %.096.lcssa.ph, 1
  br i1 %87, label %88, label %90

88:                                               ; preds = %86
  %89 = tail call ptr @expert_add_info(ptr noundef %1, ptr noundef null, ptr noundef nonnull @ei_banana_pb_error)
  br label %90

90:                                               ; preds = %88, %86
  %91 = load i32, ptr @hf_banana_pb, align 4
  %92 = add i32 %.095108, -1
  %93 = tail call ptr @proto_tree_add_item(ptr noundef %2, i32 noundef %91, ptr noundef %0, i32 noundef %92, i32 noundef 1, i32 noundef 0)
  br label %.loopexit

.loopexit:                                        ; preds = %38, %30, %90, %82, %78, %74, %68, %59, %50
  %.3 = phi i32 [ %8, %90 ], [ %8, %82 ], [ %8, %78 ], [ %77, %74 ], [ %8, %68 ], [ %63, %59 ], [ %8, %50 ], [ %8, %30 ], [ %43, %38 ]
  %94 = sub i32 %.3, %3
  br label %._crit_edge.thread

._crit_edge.thread:                               ; preds = %4, %._crit_edge, %.loopexit, %44
  %.094 = phi i32 [ %94, %.loopexit ], [ %45, %44 ], [ 0, %._crit_edge ], [ 0, %4 ]
  ret i32 %.094
}